target datalayout = "e-m:e-p270:32:32-p271:32:32-p272:64:64-i64:64-i128:128-f80:128-n8:16:32:64-S128"
target triple = "x86_64-pc-linux-gnu"

%struct.Aig_Man_t_ = type { ptr, ptr, ptr, ptr, ptr, ptr, ptr, %struct.Aig_Obj_t_, i32, i32, i32, i32, i32, i32, [7 x i32], i32, ptr, i32, ptr, i32, ptr, i32, i32, i32, ptr, i32, i32, i32, i32, i32, ptr, ptr, i32, ptr, ptr, i32, ptr, ptr, i32, i32, i32, ptr, ptr, ptr, ptr, ptr, ptr, ptr, ptr, ptr, ptr, ptr, ptr, ptr, ptr, i32, ptr, ptr, ptr, ptr, i32, i64, i64, i64, ptr, ptr }
%struct.Aig_Obj_t_ = type { %union.anon, ptr, ptr, i64, i32, i32, %union.anon.0 }
%union.anon = type { ptr }
%union.anon.0 = type { ptr }
%struct.Abc_Ntk_t_ = type { i32, i32, ptr, ptr, ptr, ptr, ptr, ptr, ptr, ptr, ptr, ptr, ptr, [11 x i32], i32, i32, i32, i32, ptr, i32, ptr, ptr, i32, i32, i32, double, i32, %struct.Vec_Int_t_, ptr, ptr, ptr, ptr, ptr, float, i32, ptr, ptr, ptr, ptr, ptr, ptr, ptr, ptr, ptr, ptr, ptr, ptr, ptr, ptr, ptr, ptr, ptr, ptr, ptr, ptr, ptr, ptr }
%struct.Vec_Int_t_ = type { i32, i32, ptr }

@.str.9 = private unnamed_addr constant [6 x i8] c"cmCgh\00", align 1
@.str.10 = private unnamed_addr constant [51 x i8] c"The input network was not strashed, strashing....\0A\00", align 1
@stdout = external global ptr, align 8
@.str.21 = private unnamed_addr constant [19 x i8] c"\09-h : print usage\0A\00", align 1
@.str.22 = private unnamed_addr constant [28 x i8] c"Enter parameterizedCombK = \00", align 1
@.str.23 = private unnamed_addr constant [3 x i8] c"%d\00", align 1
@.str.24 = private unnamed_addr constant [26 x i8] c"\0AFailed to read integer!\0A\00", align 1
@.str.25 = private unnamed_addr constant [2 x i8] c"\0A\00", align 1
@.str.26 = private unnamed_addr constant [48 x i8] c"Abc_NtkCreateCone(): Network check has failed.\0A\00", align 1
@.str.27 = private unnamed_addr constant [21 x i8] c"usage: nck [-cmgCh]\0A\00", align 1
@.str.28 = private unnamed_addr constant [52 x i8] c"\09generates combinatorial signals for stabilization\0A\00", align 1

; Function Attrs: inlinehint nounwind uwtable
define internal ptr @Abc_UtilStrsav(ptr noundef %0) #2 {
  %2 = alloca ptr, align 8
  store ptr %0, ptr %2, align 8, !tbaa !49
  %3 = load ptr, ptr %2, align 8, !tbaa !49
  %4 = icmp ne ptr %3, null
  br i1 %4, label %5, label %13

5:                                                ; preds = %1
  %6 = load ptr, ptr %2, align 8, !tbaa !49
  %7 = call i64 @strlen(ptr noundef %6) #11
  %8 = add i64 %7, 1
  %9 = mul i64 1, %8
  %10 = call noalias ptr @malloc(i64 noundef %9) #12
  %11 = load ptr, ptr %2, align 8, !tbaa !49
  %12 = call ptr @strcpy(ptr noundef %10, ptr noundef %11) #10
  br label %14

13:                                               ; preds = %1
  br label %14

14:                                               ; preds = %13, %5
  %15 = phi ptr [ %12, %5 ], [ null, %13 ]
  ret ptr %15
}

; Function Attrs: inlinehint nounwind uwtable
define internal i32 @Abc_NtkIsStrash(ptr noundef %0) #2 {
  %2 = alloca ptr, align 8
  store ptr %0, ptr %2, align 8, !tbaa !57
  %3 = load ptr, ptr %2, align 8, !tbaa !57
  %4 = getelementptr inbounds nuw %struct.Abc_Ntk_t_, ptr %3, i32 0, i32 0
  %5 = load i32, ptr %4, align 8, !tbaa !93
  %6 = icmp eq i32 %5, 3
  %7 = zext i1 %6 to i32
  ret i32 %7
}

; Function Attrs: nounwind uwtable
define i32 @Abc_CommandNChooseK(ptr noundef %0, i32 noundef %1, ptr noundef %2) #0 {
  %4 = alloca i32, align 4
  %5 = alloca ptr, align 8
  %6 = alloca i32, align 4
  %7 = alloca ptr, align 8
  %8 = alloca ptr, align 8
  %9 = alloca ptr, align 8
  %10 = alloca ptr, align 8
  %11 = alloca ptr, align 8
  %12 = alloca ptr, align 8
  %13 = alloca i32, align 4
  %14 = alloca i32, align 4
  %15 = alloca i32, align 4
  %16 = alloca i32, align 4
  store ptr %0, ptr %5, align 8, !tbaa !85
  store i32 %1, ptr %6, align 4, !tbaa !8
  store ptr %2, ptr %7, align 8, !tbaa !87
  call void @llvm.lifetime.start.p0(i64 8, ptr %8) #10
  call void @llvm.lifetime.start.p0(i64 8, ptr %9) #10
  call void @llvm.lifetime.start.p0(i64 8, ptr %10) #10
  call void @llvm.lifetime.start.p0(i64 8, ptr %11) #10
  call void @llvm.lifetime.start.p0(i64 8, ptr %12) #10
  call void @llvm.lifetime.start.p0(i64 4, ptr %13) #10
  store i32 -1, ptr %13, align 4, !tbaa !8
  call void @llvm.lifetime.start.p0(i64 4, ptr %14) #10
  call void @llvm.lifetime.start.p0(i64 4, ptr %15) #10
  %17 = load ptr, ptr %5, align 8, !tbaa !85
  %18 = call ptr @Abc_FrameReadNtk(ptr noundef %17)
  store ptr %18, ptr %8, align 8, !tbaa !57
  %19 = load i32, ptr %6, align 4, !tbaa !8
  %20 = icmp eq i32 %19, 1
  br i1 %20, label %21, label %22

21:                                               ; preds = %3
  store i32 0, ptr %13, align 4, !tbaa !8
  br label %38

22:                                               ; preds = %3
  call void (...) @Extra_UtilGetoptReset()
  br label %23

23:                                               ; preds = %36, %22
  %24 = load i32, ptr %6, align 4, !tbaa !8
  %25 = load ptr, ptr %7, align 8, !tbaa !87
  %26 = call i32 @Extra_UtilGetopt(i32 noundef %24, ptr noundef %25, ptr noundef @.str.9)
  store i32 %26, ptr %14, align 4, !tbaa !8
  %27 = icmp ne i32 %26, -1
  br i1 %27, label %28, label %37

28:                                               ; preds = %23
  %29 = load i32, ptr %14, align 4, !tbaa !8
  switch i32 %29, label %35 [
    i32 99, label %30
    i32 109, label %31
    i32 67, label %32
    i32 103, label %33
    i32 104, label %34
  ]

30:                                               ; preds = %28
  store i32 1, ptr %13, align 4, !tbaa !8
  br label %36

31:                                               ; preds = %28
  store i32 2, ptr %13, align 4, !tbaa !8
  br label %36

32:                                               ; preds = %28
  store i32 3, ptr %13, align 4, !tbaa !8
  br label %36

33:                                               ; preds = %28
  store i32 4, ptr %13, align 4, !tbaa !8
  br label %36

34:                                               ; preds = %28
  br label %84

35:                                               ; preds = %28
  br label %84

36:                                               ; preds = %33, %32, %31, %30
  br label %23, !llvm.loop !94

37:                                               ; preds = %23
  br label %38

38:                                               ; preds = %37, %21
  %39 = load ptr, ptr %8, align 8, !tbaa !57
  %40 = call i32 @Abc_NtkIsStrash(ptr noundef %39)
  %41 = icmp ne i32 %40, 0
  br i1 %41, label %48, label %42

42:                                               ; preds = %38
  %43 = call i32 (ptr, ...) @printf(ptr noundef @.str.10)
  %44 = load ptr, ptr %8, align 8, !tbaa !57
  %45 = call ptr @Abc_NtkStrash(ptr noundef %44, i32 noundef 0, i32 noundef 0, i32 noundef 0)
  store ptr %45, ptr %9, align 8, !tbaa !57
  %46 = load ptr, ptr %9, align 8, !tbaa !57
  %47 = call ptr @Abc_NtkToDar(ptr noundef %46, i32 noundef 0, i32 noundef 1)
  store ptr %47, ptr %11, align 8, !tbaa !3
  br label %52

48:                                               ; preds = %38
  %49 = load ptr, ptr %8, align 8, !tbaa !57
  %50 = call ptr @Abc_NtkToDar(ptr noundef %49, i32 noundef 0, i32 noundef 1)
  store ptr %50, ptr %11, align 8, !tbaa !3
  %51 = load ptr, ptr %8, align 8, !tbaa !57
  store ptr %51, ptr %9, align 8, !tbaa !57
  br label %52

52:                                               ; preds = %48, %42
  %53 = call i32 (ptr, ...) @printf(ptr noundef @.str.22)
  %54 = call i32 (ptr, ...) @__isoc99_scanf(ptr noundef @.str.23, ptr noundef %15)
  %55 = icmp ne i32 %54, 1
  br i1 %55, label %56, label %58

56:                                               ; preds = %52
  %57 = call i32 (ptr, ...) @printf(ptr noundef @.str.24)
  store i32 0, ptr %4, align 4
  store i32 1, ptr %16, align 4
  br label %91

58:                                               ; preds = %52
  %59 = call i32 (ptr, ...) @printf(ptr noundef @.str.25)
  %60 = load ptr, ptr %8, align 8, !tbaa !57
  %61 = load ptr, ptr %11, align 8, !tbaa !3
  %62 = load i32, ptr %15, align 4, !tbaa !8
  %63 = call ptr @generateGeneralDisjunctiveTester(ptr noundef %60, ptr noundef %61, i32 noundef %62)
  store ptr %63, ptr %12, align 8, !tbaa !3
  %64 = load ptr, ptr %12, align 8, !tbaa !3
  call void @Aig_ManPrintStats(ptr noundef %64)
  %65 = load ptr, ptr %12, align 8, !tbaa !3
  %66 = call ptr @Abc_NtkFromAigPhase(ptr noundef %65)
  store ptr %66, ptr %10, align 8, !tbaa !57
  %67 = load ptr, ptr %12, align 8, !tbaa !3
  %68 = getelementptr inbounds nuw %struct.Aig_Man_t_, ptr %67, i32 0, i32 0
  %69 = load ptr, ptr %68, align 8, !tbaa !26
  %70 = call ptr @Abc_UtilStrsav(ptr noundef %69)
  %71 = load ptr, ptr %10, align 8, !tbaa !57
  %72 = getelementptr inbounds nuw %struct.Abc_Ntk_t_, ptr %71, i32 0, i32 2
  store ptr %70, ptr %72, align 8, !tbaa !95
  %73 = load ptr, ptr %10, align 8, !tbaa !57
  %74 = call i32 @Abc_NtkCheck(ptr noundef %73)
  %75 = icmp ne i32 %74, 0
  br i1 %75, label %79, label %76

76:                                               ; preds = %58
  %77 = load ptr, ptr @stdout, align 8, !tbaa !82
  %78 = call i32 (ptr, ptr, ...) @fprintf(ptr noundef %77, ptr noundef @.str.26) #10
  br label %79

79:                                               ; preds = %76, %58
  %80 = load ptr, ptr %5, align 8, !tbaa !85
  %81 = load ptr, ptr %10, align 8, !tbaa !57
  call void @Abc_FrameSetCurrentNetwork(ptr noundef %80, ptr noundef %81)
  %82 = load ptr, ptr %12, align 8, !tbaa !3
  call void @Aig_ManStop(ptr noundef %82)
  %83 = load ptr, ptr %11, align 8, !tbaa !3
  call void @Aig_ManStop(ptr noundef %83)
  store i32 1, ptr %4, align 4
  store i32 1, ptr %16, align 4
  br label %91

84:                                               ; preds = %35, %34
  %85 = load ptr, ptr @stdout, align 8, !tbaa !82
  %86 = call i32 (ptr, ptr, ...) @fprintf(ptr noundef %85, ptr noundef @.str.27) #10
  %87 = load ptr, ptr @stdout, align 8, !tbaa !82
  %88 = call i32 (ptr, ptr, ...) @fprintf(ptr noundef %87, ptr noundef @.str.28) #10
  %89 = load ptr, ptr @stdout, align 8, !tbaa !82
  %90 = call i32 (ptr, ptr, ...) @fprintf(ptr noundef %89, ptr noundef @.str.21) #10
  store i32 1, ptr %4, align 4
  store i32 1, ptr %16, align 4
  br label %91

91:                                               ; preds = %84, %79, %56
  call void @llvm.lifetime.end.p0(i64 4, ptr %15) #10
  call void @llvm.lifetime.end.p0(i64 4, ptr %14) #10
  call void @llvm.lifetime.end.p0(i64 4, ptr %13) #10
  call void @llvm.lifetime.end.p0(i64 8, ptr %12) #10
  call void @llvm.lifetime.end.p0(i64 8, ptr %11) #10
  call void @llvm.lifetime.end.p0(i64 8, ptr %10) #10
  call void @llvm.lifetime.end.p0(i64 8, ptr %9) #10
  call void @llvm.lifetime.end.p0(i64 8, ptr %8) #10
  %92 = load i32, ptr %4, align 4
  ret i32 %92
}