; Function Attrs: nounwind uwtable
define range(i32 0, 2) i32 @Abc_CommandNChooseK(ptr noundef %0, i32 noundef %1, ptr noundef %2) local_unnamed_addr #2 {
  %4 = alloca i32, align 4
  call void @llvm.lifetime.start.p0(i64 4, ptr nonnull %4) #17
  %5 = tail call ptr @Abc_FrameReadNtk(ptr noundef %0) #17
  %6 = icmp eq i32 %1, 1
  br i1 %6, label %.loopexit, label %7

7:                                                ; preds = %3
  tail call void (...) @Extra_UtilGetoptReset() #17
  br label %8

8:                                                ; preds = %.backedge, %7
  %9 = tail call i32 @Extra_UtilGetopt(i32 noundef %1, ptr noundef %2, ptr noundef nonnull @.str.9) #17
  switch i32 %9, label %34 [
    i32 -1, label %.loopexit
    i32 99, label %.backedge
    i32 109, label %.backedge
    i32 67, label %.backedge
    i32 103, label %.backedge
  ]

.backedge:                                        ; preds = %8, %8, %8, %8
  br label %8, !llvm.loop !83

.loopexit:                                        ; preds = %8, %3
  %.val = load i32, ptr %5, align 8, !tbaa !73
  %.not = icmp eq i32 %.val, 3
  br i1 %.not, label %12, label %10

10:                                               ; preds = %.loopexit
  %puts = tail call i32 @puts(ptr nonnull dereferenceable(1) @str.1)
  %11 = tail call ptr @Abc_NtkStrash(ptr noundef nonnull %5, i32 noundef 0, i32 noundef 0, i32 noundef 0) #17
  br label %12

12:                                               ; preds = %.loopexit, %10
  %.sink = phi ptr [ %11, %10 ], [ %5, %.loopexit ]
  %13 = tail call ptr @Abc_NtkToDar(ptr noundef %.sink, i32 noundef 0, i32 noundef 1) #17
  %14 = tail call i32 (ptr, ...) @printf(ptr noundef nonnull dereferenceable(1) @.str.22)
  %15 = call i32 (ptr, ...) @__isoc99_scanf(ptr noundef nonnull @.str.23, ptr noundef nonnull %4)
  %.not25 = icmp eq i32 %15, 1
  br i1 %.not25, label %17, label %16

16:                                               ; preds = %12
  %puts27 = call i32 @puts(ptr nonnull dereferenceable(1) @str.2)
  br label %41

17:                                               ; preds = %12
  %putchar = call i32 @putchar(i32 10)
  %18 = load i32, ptr %4, align 4, !tbaa !29
  %19 = call ptr @generateGeneralDisjunctiveTester(ptr noundef nonnull %5, ptr noundef %13, i32 noundef %18) #17
  call void @Aig_ManPrintStats(ptr noundef %19) #17
  %20 = call ptr @Abc_NtkFromAigPhase(ptr noundef %19) #17
  %21 = load ptr, ptr %19, align 8, !tbaa !27
  %.not.i = icmp eq ptr %21, null
  br i1 %.not.i, label %Abc_UtilStrsav.exit, label %22

22:                                               ; preds = %17
  %23 = call i64 @strlen(ptr noundef nonnull readonly dereferenceable(1) %21) #18
  %24 = add i64 %23, 1
  %25 = call noalias ptr @malloc(i64 noundef %24) #19
  %26 = call ptr @strcpy(ptr noundef nonnull dereferenceable(1) %25, ptr noundef nonnull readonly dereferenceable(1) %21) #17
  br label %Abc_UtilStrsav.exit

Abc_UtilStrsav.exit:                              ; preds = %17, %22
  %27 = phi ptr [ %25, %22 ], [ null, %17 ]
  %28 = getelementptr inbounds nuw i8, ptr %20, i64 8
  store ptr %27, ptr %28, align 8, !tbaa !84
  %29 = call i32 @Abc_NtkCheck(ptr noundef %20) #17
  %.not26 = icmp eq i32 %29, 0
  br i1 %.not26, label %30, label %33

30:                                               ; preds = %Abc_UtilStrsav.exit
  %31 = load ptr, ptr @stdout, align 8, !tbaa !78
  %32 = call i64 @fwrite(ptr nonnull @.str.26, i64 47, i64 1, ptr %31)
  br label %33

33:                                               ; preds = %30, %Abc_UtilStrsav.exit
  call void @Abc_FrameSetCurrentNetwork(ptr noundef %0, ptr noundef nonnull %20) #17
  call void @Aig_ManStop(ptr noundef nonnull %19) #17
  call void @Aig_ManStop(ptr noundef %13) #17
  br label %41

34:                                               ; preds = %8
  %35 = load ptr, ptr @stdout, align 8, !tbaa !78
  %36 = tail call i64 @fwrite(ptr nonnull @.str.27, i64 20, i64 1, ptr %35)
  %37 = load ptr, ptr @stdout, align 8, !tbaa !78
  %38 = tail call i64 @fwrite(ptr nonnull @.str.28, i64 51, i64 1, ptr %37)
  %39 = load ptr, ptr @stdout, align 8, !tbaa !78
  %40 = tail call i64 @fwrite(ptr nonnull @.str.21, i64 18, i64 1, ptr %39)
  br label %41

41:                                               ; preds = %34, %33, %16
  %.0 = phi i32 [ 0, %16 ], [ 1, %33 ], [ 1, %34 ]
  call void @llvm.lifetime.end.p0(i64 4, ptr nonnull %4) #17
  ret i32 %.0
}